target datalayout = "e-m:e-p270:32:32-p271:32:32-p272:64:64-i64:64-i128:128-f80:128-n8:16:32:64-S128"
target triple = "x86_64-pc-linux-gnu"

@hf_rdm_pd_parameter_id = internal global i32 0, align 4
@hf_rdm_pd_parameter_pdl_size = internal global i32 0, align 4
@hf_rdm_pd_parameter_data_type = internal global i32 0, align 4
@hf_rdm_pd_parameter_cmd_class = internal global i32 0, align 4
@hf_rdm_pd_parameter_type = internal global i32 0, align 4
@hf_rdm_pd_parameter_unit = internal global i32 0, align 4
@hf_rdm_pd_parameter_prefix = internal global i32 0, align 4
@hf_rdm_pd_parameter_min_value = internal global i32 0, align 4
@hf_rdm_pd_parameter_max_value = internal global i32 0, align 4
@hf_rdm_pd_parameter_default_value = internal global i32 0, align 4
@hf_rdm_pd_parameter_description = internal global i32 0, align 4
@hf_etc_pd_parameter_id = internal global i32 0, align 4

; Function Attrs: null_pointer_is_valid sspstrong uwtable
define internal void @rdm_proto_tree_add_ascii_item(ptr noundef %0, i32 noundef %1, ptr noundef %2, ptr noundef %3, i32 noundef %4) #1 {
  %6 = alloca ptr, align 8
  %7 = alloca i32, align 4
  %8 = alloca ptr, align 8
  %9 = alloca ptr, align 8
  %10 = alloca i32, align 4
  %11 = alloca i32, align 4
  store ptr %0, ptr %6, align 8
  store i32 %1, ptr %7, align 4
  store ptr %2, ptr %8, align 8
  store ptr %3, ptr %9, align 8
  store i32 %4, ptr %10, align 4
  call void @llvm.lifetime.start.p0(i64 4, ptr %11) #4
  %12 = load ptr, ptr %9, align 8
  %13 = load i32, ptr %12, align 4
  store i32 %13, ptr %11, align 4
  %14 = load ptr, ptr %6, align 8
  %15 = load i32, ptr %7, align 4
  %16 = load ptr, ptr %8, align 8
  %17 = load i32, ptr %11, align 4
  %18 = load i32, ptr %10, align 4
  %19 = call ptr @proto_tree_add_item(ptr noundef %14, i32 noundef %15, ptr noundef %16, i32 noundef %17, i32 noundef %18, i32 noundef 0)
  %20 = load i32, ptr %10, align 4
  %21 = load ptr, ptr %9, align 8
  %22 = load i32, ptr %21, align 4
  %23 = add i32 %22, %20
  store i32 %23, ptr %21, align 4
  call void @llvm.lifetime.end.p0(i64 4, ptr %11) #4
  ret void
}

; Function Attrs: null_pointer_is_valid sspstrong uwtable
define internal void @rdm_proto_tree_add_numeric_item(ptr noundef %0, i32 noundef %1, ptr noundef %2, ptr noundef %3, i8 noundef zeroext %4) #1 {
  %6 = alloca ptr, align 8
  %7 = alloca i32, align 4
  %8 = alloca ptr, align 8
  %9 = alloca ptr, align 8
  %10 = alloca i8, align 1
  %11 = alloca i32, align 4
  store ptr %0, ptr %6, align 8
  store i32 %1, ptr %7, align 4
  store ptr %2, ptr %8, align 8
  store ptr %3, ptr %9, align 8
  store i8 %4, ptr %10, align 1
  call void @llvm.lifetime.start.p0(i64 4, ptr %11) #4
  %12 = load ptr, ptr %9, align 8
  %13 = load i32, ptr %12, align 4
  store i32 %13, ptr %11, align 4
  %14 = load ptr, ptr %6, align 8
  %15 = load i32, ptr %7, align 4
  %16 = load ptr, ptr %8, align 8
  %17 = load i32, ptr %11, align 4
  %18 = load i8, ptr %10, align 1
  %19 = zext i8 %18 to i32
  %20 = call ptr @proto_tree_add_item(ptr noundef %14, i32 noundef %15, ptr noundef %16, i32 noundef %17, i32 noundef %19, i32 noundef 0)
  %21 = load i8, ptr %10, align 1
  %22 = zext i8 %21 to i32
  %23 = load ptr, ptr %9, align 8
  %24 = load i32, ptr %23, align 4
  %25 = add i32 %24, %22
  store i32 %25, ptr %23, align 4
  call void @llvm.lifetime.end.p0(i64 4, ptr %11) #4
  ret void
}

; Function Attrs: null_pointer_is_valid sspstrong uwtable
define internal void @add_param_id_to_tree(i16 noundef zeroext %0, ptr noundef %1, ptr noundef %2, ptr noundef %3, i16 noundef zeroext %4) #1 {
  %6 = alloca i16, align 2
  %7 = alloca ptr, align 8
  %8 = alloca ptr, align 8
  %9 = alloca ptr, align 8
  %10 = alloca i16, align 2
  store i16 %0, ptr %6, align 2
  store ptr %1, ptr %7, align 8
  store ptr %2, ptr %8, align 8
  store ptr %3, ptr %9, align 8
  store i16 %4, ptr %10, align 2
  %11 = load i16, ptr %6, align 2
  %12 = zext i16 %11 to i32
  %13 = icmp slt i32 %12, 32768
  br i1 %13, label %14, label %19

14:                                               ; preds = %5
  %15 = load ptr, ptr %7, align 8
  %16 = load i32, ptr @hf_rdm_pd_parameter_id, align 4
  %17 = load ptr, ptr %8, align 8
  %18 = load ptr, ptr %9, align 8
  call void @rdm_proto_tree_add_numeric_item(ptr noundef %15, i32 noundef %16, ptr noundef %17, ptr noundef %18, i8 noundef zeroext 2)
  br label %33

19:                                               ; preds = %5
  %20 = load i16, ptr %10, align 2
  %21 = zext i16 %20 to i32
  switch i32 %21, label %27 [
    i32 25972, label %22
  ]

22:                                               ; preds = %19
  %23 = load ptr, ptr %7, align 8
  %24 = load i32, ptr @hf_etc_pd_parameter_id, align 4
  %25 = load ptr, ptr %8, align 8
  %26 = load ptr, ptr %9, align 8
  call void @rdm_proto_tree_add_numeric_item(ptr noundef %23, i32 noundef %24, ptr noundef %25, ptr noundef %26, i8 noundef zeroext 2)
  br label %32

27:                                               ; preds = %19
  %28 = load ptr, ptr %7, align 8
  %29 = load i32, ptr @hf_rdm_pd_parameter_id, align 4
  %30 = load ptr, ptr %8, align 8
  %31 = load ptr, ptr %9, align 8
  call void @rdm_proto_tree_add_numeric_item(ptr noundef %28, i32 noundef %29, ptr noundef %30, ptr noundef %31, i8 noundef zeroext 2)
  br label %32

32:                                               ; preds = %27, %22
  br label %33

33:                                               ; preds = %32, %14
  ret void
}

; Function Attrs: null_pointer_is_valid sspstrong uwtable
define internal i32 @dissect_rdm_pd_parameter_description(ptr noundef %0, i32 noundef %1, ptr noundef %2, i8 noundef zeroext %3, i8 noundef zeroext %4, i16 noundef zeroext %5) #1 {
  %7 = alloca ptr, align 8
  %8 = alloca i32, align 4
  %9 = alloca ptr, align 8
  %10 = alloca i8, align 1
  %11 = alloca i8, align 1
  %12 = alloca i16, align 2
  %13 = alloca i16, align 2
  store ptr %0, ptr %7, align 8
  store i32 %1, ptr %8, align 4
  store ptr %2, ptr %9, align 8
  store i8 %3, ptr %10, align 1
  store i8 %4, ptr %11, align 1
  store i16 %5, ptr %12, align 2
  call void @llvm.lifetime.start.p0(i64 2, ptr %13) #4
  %14 = load i8, ptr %10, align 1
  %15 = zext i8 %14 to i32
  switch i32 %15, label %65 [
    i32 32, label %16
    i32 33, label %24
  ]

16:                                               ; preds = %6
  %17 = load ptr, ptr %7, align 8
  %18 = load i32, ptr %8, align 4
  %19 = call zeroext i16 @tvb_get_ntohs(ptr noundef %17, i32 noundef %18)
  store i16 %19, ptr %13, align 2
  %20 = load i16, ptr %13, align 2
  %21 = load ptr, ptr %9, align 8
  %22 = load ptr, ptr %7, align 8
  %23 = load i16, ptr %12, align 2
  call void @add_param_id_to_tree(i16 noundef zeroext %20, ptr noundef %21, ptr noundef %22, ptr noundef %8, i16 noundef zeroext %23)
  br label %65

24:                                               ; preds = %6
  %25 = load ptr, ptr %7, align 8
  %26 = load i32, ptr %8, align 4
  %27 = call zeroext i16 @tvb_get_ntohs(ptr noundef %25, i32 noundef %26)
  store i16 %27, ptr %13, align 2
  %28 = load i16, ptr %13, align 2
  %29 = load ptr, ptr %9, align 8
  %30 = load ptr, ptr %7, align 8
  %31 = load i16, ptr %12, align 2
  call void @add_param_id_to_tree(i16 noundef zeroext %28, ptr noundef %29, ptr noundef %30, ptr noundef %8, i16 noundef zeroext %31)
  %32 = load ptr, ptr %9, align 8
  %33 = load i32, ptr @hf_rdm_pd_parameter_pdl_size, align 4
  %34 = load ptr, ptr %7, align 8
  call void @rdm_proto_tree_add_numeric_item(ptr noundef %32, i32 noundef %33, ptr noundef %34, ptr noundef %8, i8 noundef zeroext 1)
  %35 = load ptr, ptr %9, align 8
  %36 = load i32, ptr @hf_rdm_pd_parameter_data_type, align 4
  %37 = load ptr, ptr %7, align 8
  call void @rdm_proto_tree_add_numeric_item(ptr noundef %35, i32 noundef %36, ptr noundef %37, ptr noundef %8, i8 noundef zeroext 1)
  %38 = load ptr, ptr %9, align 8
  %39 = load i32, ptr @hf_rdm_pd_parameter_cmd_class, align 4
  %40 = load ptr, ptr %7, align 8
  call void @rdm_proto_tree_add_numeric_item(ptr noundef %38, i32 noundef %39, ptr noundef %40, ptr noundef %8, i8 noundef zeroext 1)
  %41 = load ptr, ptr %9, align 8
  %42 = load i32, ptr @hf_rdm_pd_parameter_type, align 4
  %43 = load ptr, ptr %7, align 8
  call void @rdm_proto_tree_add_numeric_item(ptr noundef %41, i32 noundef %42, ptr noundef %43, ptr noundef %8, i8 noundef zeroext 1)
  %44 = load ptr, ptr %9, align 8
  %45 = load i32, ptr @hf_rdm_pd_parameter_unit, align 4
  %46 = load ptr, ptr %7, align 8
  call void @rdm_proto_tree_add_numeric_item(ptr noundef %44, i32 noundef %45, ptr noundef %46, ptr noundef %8, i8 noundef zeroext 1)
  %47 = load ptr, ptr %9, align 8
  %48 = load i32, ptr @hf_rdm_pd_parameter_prefix, align 4
  %49 = load ptr, ptr %7, align 8
  call void @rdm_proto_tree_add_numeric_item(ptr noundef %47, i32 noundef %48, ptr noundef %49, ptr noundef %8, i8 noundef zeroext 1)
  %50 = load ptr, ptr %9, align 8
  %51 = load i32, ptr @hf_rdm_pd_parameter_min_value, align 4
  %52 = load ptr, ptr %7, align 8
  call void @rdm_proto_tree_add_numeric_item(ptr noundef %50, i32 noundef %51, ptr noundef %52, ptr noundef %8, i8 noundef zeroext 4)
  %53 = load ptr, ptr %9, align 8
  %54 = load i32, ptr @hf_rdm_pd_parameter_max_value, align 4
  %55 = load ptr, ptr %7, align 8
  call void @rdm_proto_tree_add_numeric_item(ptr noundef %53, i32 noundef %54, ptr noundef %55, ptr noundef %8, i8 noundef zeroext 4)
  %56 = load ptr, ptr %9, align 8
  %57 = load i32, ptr @hf_rdm_pd_parameter_default_value, align 4
  %58 = load ptr, ptr %7, align 8
  call void @rdm_proto_tree_add_numeric_item(ptr noundef %56, i32 noundef %57, ptr noundef %58, ptr noundef %8, i8 noundef zeroext 4)
  %59 = load ptr, ptr %9, align 8
  %60 = load i32, ptr @hf_rdm_pd_parameter_description, align 4
  %61 = load ptr, ptr %7, align 8
  %62 = load i8, ptr %11, align 1
  %63 = zext i8 %62 to i32
  %64 = sub i32 %63, 20
  call void @rdm_proto_tree_add_ascii_item(ptr noundef %59, i32 noundef %60, ptr noundef %61, ptr noundef %8, i32 noundef %64)
  br label %65

65:                                               ; preds = %6, %24, %16
  %66 = load i32, ptr %8, align 4
  call void @llvm.lifetime.end.p0(i64 2, ptr %13) #4
  ret i32 %66
}