; Function Attrs: null_pointer_is_valid sspstrong uwtable
define internal fastcc range(i32 23, 279) i32 @dissect_rdm_pd_parameter_description(ptr noundef %0, ptr noundef %1, i8 noundef zeroext %2, i8 noundef zeroext %3, i16 noundef zeroext %4) unnamed_addr #1 {
  switch i8 %2, label %41 [
    i8 32, label %6
    i8 33, label %12
  ]

6:                                                ; preds = %5
  %7 = tail call zeroext i16 @tvb_get_ntohs(ptr noundef %0, i32 noundef 23)
  %cond.i = icmp eq i16 %4, 25972
  %hf_rdm_pd_parameter_id.val.i = load i32, ptr @hf_rdm_pd_parameter_id, align 4
  %hf_etc_pd_parameter_id.val.i = load i32, ptr @hf_etc_pd_parameter_id, align 4
  %8 = icmp slt i16 %7, 0
  %9 = and i1 %cond.i, %8
  %10 = select i1 %9, i32 %hf_etc_pd_parameter_id.val.i, i32 %hf_rdm_pd_parameter_id.val.i
  %11 = tail call ptr @proto_tree_add_item(ptr noundef %1, i32 noundef %10, ptr noundef %0, i32 noundef 23, i32 noundef 2, i32 noundef 0)
  br label %41

12:                                               ; preds = %5
  %13 = tail call zeroext i16 @tvb_get_ntohs(ptr noundef %0, i32 noundef 23)
  %cond.i31 = icmp eq i16 %4, 25972
  %hf_rdm_pd_parameter_id.val.i32 = load i32, ptr @hf_rdm_pd_parameter_id, align 4
  %hf_etc_pd_parameter_id.val.i33 = load i32, ptr @hf_etc_pd_parameter_id, align 4
  %14 = icmp slt i16 %13, 0
  %15 = and i1 %cond.i31, %14
  %16 = select i1 %15, i32 %hf_etc_pd_parameter_id.val.i33, i32 %hf_rdm_pd_parameter_id.val.i32
  %17 = tail call ptr @proto_tree_add_item(ptr noundef %1, i32 noundef %16, ptr noundef %0, i32 noundef 23, i32 noundef 2, i32 noundef 0)
  %18 = load i32, ptr @hf_rdm_pd_parameter_pdl_size, align 4
  %19 = tail call ptr @proto_tree_add_item(ptr noundef %1, i32 noundef %18, ptr noundef %0, i32 noundef 25, i32 noundef 1, i32 noundef 0)
  %20 = load i32, ptr @hf_rdm_pd_parameter_data_type, align 4
  %21 = tail call ptr @proto_tree_add_item(ptr noundef %1, i32 noundef %20, ptr noundef %0, i32 noundef 26, i32 noundef 1, i32 noundef 0)
  %22 = load i32, ptr @hf_rdm_pd_parameter_cmd_class, align 4
  %23 = tail call ptr @proto_tree_add_item(ptr noundef %1, i32 noundef %22, ptr noundef %0, i32 noundef 27, i32 noundef 1, i32 noundef 0)
  %24 = load i32, ptr @hf_rdm_pd_parameter_type, align 4
  %25 = tail call ptr @proto_tree_add_item(ptr noundef %1, i32 noundef %24, ptr noundef %0, i32 noundef 28, i32 noundef 1, i32 noundef 0)
  %26 = load i32, ptr @hf_rdm_pd_parameter_unit, align 4
  %27 = tail call ptr @proto_tree_add_item(ptr noundef %1, i32 noundef %26, ptr noundef %0, i32 noundef 29, i32 noundef 1, i32 noundef 0)
  %28 = load i32, ptr @hf_rdm_pd_parameter_prefix, align 4
  %29 = tail call ptr @proto_tree_add_item(ptr noundef %1, i32 noundef %28, ptr noundef %0, i32 noundef 30, i32 noundef 1, i32 noundef 0)
  %30 = load i32, ptr @hf_rdm_pd_parameter_min_value, align 4
  %31 = tail call ptr @proto_tree_add_item(ptr noundef %1, i32 noundef %30, ptr noundef %0, i32 noundef 31, i32 noundef 4, i32 noundef 0)
  %32 = load i32, ptr @hf_rdm_pd_parameter_max_value, align 4
  %33 = tail call ptr @proto_tree_add_item(ptr noundef %1, i32 noundef %32, ptr noundef %0, i32 noundef 35, i32 noundef 4, i32 noundef 0)
  %34 = load i32, ptr @hf_rdm_pd_parameter_default_value, align 4
  %35 = tail call ptr @proto_tree_add_item(ptr noundef %1, i32 noundef %34, ptr noundef %0, i32 noundef 39, i32 noundef 4, i32 noundef 0)
  %36 = load i32, ptr @hf_rdm_pd_parameter_description, align 4
  %37 = zext i8 %3 to i32
  %38 = add nsw i32 %37, -20
  %39 = tail call ptr @proto_tree_add_item(ptr noundef %1, i32 noundef %36, ptr noundef %0, i32 noundef 43, i32 noundef range(i32 -20, 256) %38, i32 noundef 0)
  %40 = add nuw nsw i32 %37, 23
  br label %41

41:                                               ; preds = %12, %6, %5
  %.0 = phi i32 [ 23, %5 ], [ %40, %12 ], [ 25, %6 ]
  ret i32 %.0
}